target datalayout = "e-m:e-p270:32:32-p271:32:32-p272:64:64-i64:64-i128:128-f80:128-n8:16:32:64-S128"
target triple = "x86_64-pc-linux-gnu"

%struct.Decimal = type { i8, i8, i8, i8, i32, i32, ptr }

; Function Attrs: nounwind uwtable
define internal void @decimal_expand(ptr noundef %0, i32 noundef %1, i32 noundef %2) #0 {
  %4 = alloca ptr, align 8
  %5 = alloca i32, align 4
  %6 = alloca i32, align 4
  %7 = alloca i32, align 4
  %8 = alloca i32, align 4
  %9 = alloca i32, align 4
  store ptr %0, ptr %4, align 8, !tbaa !68
  store i32 %1, ptr %5, align 4, !tbaa !3
  store i32 %2, ptr %6, align 4, !tbaa !3
  call void @llvm.lifetime.start.p0(i64 4, ptr %7) #14
  call void @llvm.lifetime.start.p0(i64 4, ptr %8) #14
  %10 = load ptr, ptr %4, align 8, !tbaa !68
  %11 = icmp eq ptr %10, null
  br i1 %11, label %12, label %13

12:                                               ; preds = %3
  store i32 1, ptr %9, align 4
  br label %101

13:                                               ; preds = %3
  %14 = load i32, ptr %6, align 4, !tbaa !3
  %15 = load ptr, ptr %4, align 8, !tbaa !68
  %16 = getelementptr inbounds nuw %struct.Decimal, ptr %15, i32 0, i32 5
  %17 = load i32, ptr %16, align 8, !tbaa !77
  %18 = sub nsw i32 %14, %17
  store i32 %18, ptr %8, align 4, !tbaa !3
  %19 = load i32, ptr %5, align 4, !tbaa !3
  %20 = load ptr, ptr %4, align 8, !tbaa !68
  %21 = getelementptr inbounds nuw %struct.Decimal, ptr %20, i32 0, i32 4
  %22 = load i32, ptr %21, align 4, !tbaa !76
  %23 = sub nsw i32 %19, %22
  %24 = load i32, ptr %8, align 4, !tbaa !3
  %25 = sub nsw i32 %23, %24
  store i32 %25, ptr %7, align 4, !tbaa !3
  %26 = load i32, ptr %8, align 4, !tbaa !3
  %27 = icmp eq i32 %26, 0
  br i1 %27, label %28, label %32

28:                                               ; preds = %13
  %29 = load i32, ptr %7, align 4, !tbaa !3
  %30 = icmp eq i32 %29, 0
  br i1 %30, label %31, label %32

31:                                               ; preds = %28
  store i32 1, ptr %9, align 4
  br label %101

32:                                               ; preds = %28, %13
  %33 = load ptr, ptr %4, align 8, !tbaa !68
  %34 = getelementptr inbounds nuw %struct.Decimal, ptr %33, i32 0, i32 6
  %35 = load ptr, ptr %34, align 8, !tbaa !75
  %36 = load i32, ptr %5, align 4, !tbaa !3
  %37 = add nsw i32 %36, 1
  %38 = sext i32 %37 to i64
  %39 = call ptr @sqlite3_realloc64(ptr noundef %35, i64 noundef %38)
  %40 = load ptr, ptr %4, align 8, !tbaa !68
  %41 = getelementptr inbounds nuw %struct.Decimal, ptr %40, i32 0, i32 6
  store ptr %39, ptr %41, align 8, !tbaa !75
  %42 = load ptr, ptr %4, align 8, !tbaa !68
  %43 = getelementptr inbounds nuw %struct.Decimal, ptr %42, i32 0, i32 6
  %44 = load ptr, ptr %43, align 8, !tbaa !75
  %45 = icmp eq ptr %44, null
  br i1 %45, label %46, label %49

46:                                               ; preds = %32
  %47 = load ptr, ptr %4, align 8, !tbaa !68
  %48 = getelementptr inbounds nuw %struct.Decimal, ptr %47, i32 0, i32 1
  store i8 1, ptr %48, align 1, !tbaa !73
  store i32 1, ptr %9, align 4
  br label %101

49:                                               ; preds = %32
  %50 = load i32, ptr %7, align 4, !tbaa !3
  %51 = icmp ne i32 %50, 0
  br i1 %51, label %52, label %76

52:                                               ; preds = %49
  %53 = load ptr, ptr %4, align 8, !tbaa !68
  %54 = getelementptr inbounds nuw %struct.Decimal, ptr %53, i32 0, i32 6
  %55 = load ptr, ptr %54, align 8, !tbaa !75
  %56 = load i32, ptr %7, align 4, !tbaa !3
  %57 = sext i32 %56 to i64
  %58 = getelementptr inbounds i8, ptr %55, i64 %57
  %59 = load ptr, ptr %4, align 8, !tbaa !68
  %60 = getelementptr inbounds nuw %struct.Decimal, ptr %59, i32 0, i32 6
  %61 = load ptr, ptr %60, align 8, !tbaa !75
  %62 = load ptr, ptr %4, align 8, !tbaa !68
  %63 = getelementptr inbounds nuw %struct.Decimal, ptr %62, i32 0, i32 4
  %64 = load i32, ptr %63, align 4, !tbaa !76
  %65 = sext i32 %64 to i64
  call void @llvm.memmove.p0.p0.i64(ptr align 1 %58, ptr align 1 %61, i64 %65, i1 false)
  %66 = load ptr, ptr %4, align 8, !tbaa !68
  %67 = getelementptr inbounds nuw %struct.Decimal, ptr %66, i32 0, i32 6
  %68 = load ptr, ptr %67, align 8, !tbaa !75
  %69 = load i32, ptr %7, align 4, !tbaa !3
  %70 = sext i32 %69 to i64
  call void @llvm.memset.p0.i64(ptr align 1 %68, i8 0, i64 %70, i1 false)
  %71 = load i32, ptr %7, align 4, !tbaa !3
  %72 = load ptr, ptr %4, align 8, !tbaa !68
  %73 = getelementptr inbounds nuw %struct.Decimal, ptr %72, i32 0, i32 4
  %74 = load i32, ptr %73, align 4, !tbaa !76
  %75 = add nsw i32 %74, %71
  store i32 %75, ptr %73, align 4, !tbaa !76
  br label %76

76:                                               ; preds = %52, %49
  %77 = load i32, ptr %8, align 4, !tbaa !3
  %78 = icmp ne i32 %77, 0
  br i1 %78, label %79, label %100

79:                                               ; preds = %76
  %80 = load ptr, ptr %4, align 8, !tbaa !68
  %81 = getelementptr inbounds nuw %struct.Decimal, ptr %80, i32 0, i32 6
  %82 = load ptr, ptr %81, align 8, !tbaa !75
  %83 = load ptr, ptr %4, align 8, !tbaa !68
  %84 = getelementptr inbounds nuw %struct.Decimal, ptr %83, i32 0, i32 4
  %85 = load i32, ptr %84, align 4, !tbaa !76
  %86 = sext i32 %85 to i64
  %87 = getelementptr inbounds i8, ptr %82, i64 %86
  %88 = load i32, ptr %8, align 4, !tbaa !3
  %89 = sext i32 %88 to i64
  call void @llvm.memset.p0.i64(ptr align 1 %87, i8 0, i64 %89, i1 false)
  %90 = load i32, ptr %8, align 4, !tbaa !3
  %91 = load ptr, ptr %4, align 8, !tbaa !68
  %92 = getelementptr inbounds nuw %struct.Decimal, ptr %91, i32 0, i32 4
  %93 = load i32, ptr %92, align 4, !tbaa !76
  %94 = add nsw i32 %93, %90
  store i32 %94, ptr %92, align 4, !tbaa !76
  %95 = load i32, ptr %8, align 4, !tbaa !3
  %96 = load ptr, ptr %4, align 8, !tbaa !68
  %97 = getelementptr inbounds nuw %struct.Decimal, ptr %96, i32 0, i32 5
  %98 = load i32, ptr %97, align 8, !tbaa !77
  %99 = add nsw i32 %98, %95
  store i32 %99, ptr %97, align 8, !tbaa !77
  br label %100

100:                                              ; preds = %79, %76
  store i32 0, ptr %9, align 4
  br label %101

101:                                              ; preds = %100, %46, %31, %12
  call void @llvm.lifetime.end.p0(i64 4, ptr %8) #14
  call void @llvm.lifetime.end.p0(i64 4, ptr %7) #14
  %102 = load i32, ptr %9, align 4
  switch i32 %102, label %104 [
    i32 0, label %103
    i32 1, label %103
  ]

103:                                              ; preds = %101, %101
  ret void

104:                                              ; preds = %101
  unreachable
}