; Function Attrs: nounwind uwtable
define internal fastcc void @decimal_expand(ptr noundef nonnull captures(none) %0, i32 noundef range(i32 -2147483647, -2147483648) %1, i32 noundef %2) unnamed_addr #2 {
  %4 = getelementptr inbounds nuw i8, ptr %0, i64 8
  %5 = load i32, ptr %4, align 8, !tbaa !62
  %6 = sub nsw i32 %2, %5
  %7 = getelementptr inbounds nuw i8, ptr %0, i64 4
  %8 = load i32, ptr %7, align 4, !tbaa !61
  %9 = add i32 %8, %6
  %10 = sub i32 %1, %9
  %11 = icmp eq i32 %2, %5
  %12 = icmp eq i32 %1, %9
  %or.cond = select i1 %11, i1 %12, i1 false
  br i1 %or.cond, label %42, label %13

13:                                               ; preds = %3
  %14 = getelementptr inbounds nuw i8, ptr %0, i64 16
  %15 = load ptr, ptr %14, align 8, !tbaa !57
  %16 = add nsw i32 %1, 1
  %17 = sext i32 %16 to i64
  %18 = tail call ptr @sqlite3_realloc64(ptr noundef %15, i64 noundef %17) #43
  store ptr %18, ptr %14, align 8, !tbaa !57
  %19 = icmp eq ptr %18, null
  br i1 %19, label %20, label %22

20:                                               ; preds = %13
  %21 = getelementptr inbounds nuw i8, ptr %0, i64 1
  store i8 1, ptr %21, align 1, !tbaa !63
  br label %42

22:                                               ; preds = %13
  br i1 %12, label %31, label %23

23:                                               ; preds = %22
  %24 = sext i32 %10 to i64
  %25 = getelementptr inbounds i8, ptr %18, i64 %24
  %26 = load i32, ptr %7, align 4, !tbaa !61
  %27 = sext i32 %26 to i64
  tail call void @llvm.memmove.p0.p0.i64(ptr nonnull align 1 %25, ptr nonnull align 1 %18, i64 %27, i1 false)
  %28 = load ptr, ptr %14, align 8, !tbaa !57
  tail call void @llvm.memset.p0.i64(ptr align 1 %28, i8 0, i64 %24, i1 false)
  %29 = load i32, ptr %7, align 4, !tbaa !61
  %30 = add nsw i32 %29, %10
  store i32 %30, ptr %7, align 4, !tbaa !61
  br label %31

31:                                               ; preds = %23, %22
  br i1 %11, label %42, label %32

32:                                               ; preds = %31
  %33 = load ptr, ptr %14, align 8, !tbaa !57
  %34 = load i32, ptr %7, align 4, !tbaa !61
  %35 = sext i32 %34 to i64
  %36 = getelementptr inbounds i8, ptr %33, i64 %35
  %37 = sext i32 %6 to i64
  tail call void @llvm.memset.p0.i64(ptr align 1 %36, i8 0, i64 %37, i1 false)
  %38 = load i32, ptr %7, align 4, !tbaa !61
  %39 = add nsw i32 %38, %6
  store i32 %39, ptr %7, align 4, !tbaa !61
  %40 = load i32, ptr %4, align 8, !tbaa !62
  %41 = add nsw i32 %40, %6
  store i32 %41, ptr %4, align 8, !tbaa !62
  br label %42

42:                                               ; preds = %31, %32, %3, %20
  ret void
}